target datalayout = "e-m:e-p270:32:32-p271:32:32-p272:64:64-i64:64-i128:128-f80:128-n8:16:32:64-S128"
target triple = "x86_64-pc-linux-gnu"

%struct.H5D_chk_idx_info_t = type { ptr, ptr, ptr, ptr }
%struct.H5O_storage_chunk_t = type { i32, i64, ptr, %union.anon }
%union.anon = type { %struct.H5O_storage_chunk_btree_t }
%struct.H5O_storage_chunk_btree_t = type { i64, ptr }
%struct.H5O_storage_chunk_bt2_t = type { i64, ptr }
%struct.H5D_bt2_ctx_ud_t = type { ptr, i32, i32, ptr }
%struct.H5O_layout_chunk_t = type { i32, i8, i32, [33 x i32], i32, i32, i64, i64, [33 x i64], [33 x i64], [33 x i64], [33 x i64], %union.anon.0 }
%union.anon.0 = type { %struct.H5O_layout_chunk_earray_t }
%struct.H5O_layout_chunk_earray_t = type { %struct.anon.1, i32, [33 x i32], [33 x i64], [33 x i64] }
%struct.anon.1 = type { i8, i8, i8, i8, i8 }

@.str.2 = private unnamed_addr constant [103 x i8] c"generated/home/dtcxzyw/WorkSpace/Projects/compilers/llvm-opt-benchmark/bench/hdf5/hdf5/src/H5Dbtree2.c\00", align 1
@H5E_DATASET_g = external global i64, align 8
@H5E_CANTDEPEND_g = external global i64, align 8
@.str.21 = private unnamed_addr constant [51 x i8] c"unable to create flush dependency on object header\00", align 1
@__func__.H5D__bt2_idx_open = private unnamed_addr constant [18 x i8] c"H5D__bt2_idx_open\00", align 1
@H5E_CANTINIT_g = external global i64, align 8
@.str.26 = private unnamed_addr constant [50 x i8] c"can't open v2 B-tree for tracking chunked dataset\00", align 1

; Function Attrs: nounwind uwtable
define internal i32 @H5D__bt2_idx_open(ptr noundef %0) #0 {
  %2 = alloca ptr, align 8
  %3 = alloca %struct.H5D_bt2_ctx_ud_t, align 8
  %4 = alloca i32, align 4
  %5 = alloca i8, align 1
  store ptr %0, ptr %2, align 8
  store i32 0, ptr %4, align 4
  store i8 0, ptr %5, align 1
  %6 = load ptr, ptr %2, align 8
  %7 = getelementptr inbounds %struct.H5D_chk_idx_info_t, ptr %6, i32 0, i32 0
  %8 = load ptr, ptr %7, align 8
  %9 = getelementptr inbounds %struct.H5D_bt2_ctx_ud_t, ptr %3, i32 0, i32 0
  store ptr %8, ptr %9, align 8
  %10 = load ptr, ptr %2, align 8
  %11 = getelementptr inbounds %struct.H5D_chk_idx_info_t, ptr %10, i32 0, i32 2
  %12 = load ptr, ptr %11, align 8
  %13 = getelementptr inbounds %struct.H5O_layout_chunk_t, ptr %12, i32 0, i32 2
  %14 = load i32, ptr %13, align 8
  %15 = sub i32 %14, 1
  %16 = getelementptr inbounds %struct.H5D_bt2_ctx_ud_t, ptr %3, i32 0, i32 2
  store i32 %15, ptr %16, align 4
  %17 = load ptr, ptr %2, align 8
  %18 = getelementptr inbounds %struct.H5D_chk_idx_info_t, ptr %17, i32 0, i32 2
  %19 = load ptr, ptr %18, align 8
  %20 = getelementptr inbounds %struct.H5O_layout_chunk_t, ptr %19, i32 0, i32 5
  %21 = load i32, ptr %20, align 4
  %22 = getelementptr inbounds %struct.H5D_bt2_ctx_ud_t, ptr %3, i32 0, i32 1
  store i32 %21, ptr %22, align 8
  %23 = load ptr, ptr %2, align 8
  %24 = getelementptr inbounds %struct.H5D_chk_idx_info_t, ptr %23, i32 0, i32 2
  %25 = load ptr, ptr %24, align 8
  %26 = getelementptr inbounds %struct.H5O_layout_chunk_t, ptr %25, i32 0, i32 3
  %27 = getelementptr inbounds [33 x i32], ptr %26, i64 0, i64 0
  %28 = getelementptr inbounds %struct.H5D_bt2_ctx_ud_t, ptr %3, i32 0, i32 3
  store ptr %27, ptr %28, align 8
  %29 = load ptr, ptr %2, align 8
  %30 = getelementptr inbounds %struct.H5D_chk_idx_info_t, ptr %29, i32 0, i32 0
  %31 = load ptr, ptr %30, align 8
  %32 = load ptr, ptr %2, align 8
  %33 = getelementptr inbounds %struct.H5D_chk_idx_info_t, ptr %32, i32 0, i32 3
  %34 = load ptr, ptr %33, align 8
  %35 = getelementptr inbounds %struct.H5O_storage_chunk_t, ptr %34, i32 0, i32 1
  %36 = load i64, ptr %35, align 8
  %37 = call ptr @H5B2_open(ptr noundef %31, i64 noundef %36, ptr noundef %3)
  %38 = load ptr, ptr %2, align 8
  %39 = getelementptr inbounds %struct.H5D_chk_idx_info_t, ptr %38, i32 0, i32 3
  %40 = load ptr, ptr %39, align 8
  %41 = getelementptr inbounds %struct.H5O_storage_chunk_t, ptr %40, i32 0, i32 3
  %42 = getelementptr inbounds %struct.H5O_storage_chunk_bt2_t, ptr %41, i32 0, i32 1
  store ptr %37, ptr %42, align 8
  %43 = icmp eq ptr null, %37
  br i1 %43, label %44, label %59

44:                                               ; preds = %1
  br label %45

45:                                               ; preds = %44
  br label %46

46:                                               ; preds = %45
  br label %47

47:                                               ; preds = %46
  %48 = load i64, ptr @H5E_DATASET_g, align 8
  %49 = load i64, ptr @H5E_CANTINIT_g, align 8
  %50 = call i32 (ptr, ptr, i32, i64, i64, ptr, ...) @H5E_printf_stack(ptr noundef @.str.2, ptr noundef @__func__.H5D__bt2_idx_open, i32 noundef 758, i64 noundef %48, i64 noundef %49, ptr noundef @.str.26)
  br label %51

51:                                               ; preds = %47
  store i8 1, ptr %5, align 1
  %52 = load i8, ptr %5, align 1
  %53 = trunc i8 %52 to i1
  %54 = zext i1 %53 to i8
  store i8 %54, ptr %5, align 1
  br label %55

55:                                               ; preds = %51
  br label %56

56:                                               ; preds = %55
  store i32 -1, ptr %4, align 4
  br label %87

57:                                               ; No predecessors!
  br label %58

58:                                               ; preds = %57
  br label %59

59:                                               ; preds = %58, %1
  %60 = load ptr, ptr %2, align 8
  %61 = getelementptr inbounds %struct.H5D_chk_idx_info_t, ptr %60, i32 0, i32 0
  %62 = load ptr, ptr %61, align 8
  %63 = call i32 @H5F_get_intent(ptr noundef %62)
  %64 = and i32 %63, 32
  %65 = icmp ne i32 %64, 0
  br i1 %65, label %66, label %86

66:                                               ; preds = %59
  %67 = load ptr, ptr %2, align 8
  %68 = call i32 @H5D__btree2_idx_depend(ptr noundef %67)
  %69 = icmp slt i32 %68, 0
  br i1 %69, label %70, label %85

70:                                               ; preds = %66
  br label %71

71:                                               ; preds = %70
  br label %72

72:                                               ; preds = %71
  br label %73

73:                                               ; preds = %72
  %74 = load i64, ptr @H5E_DATASET_g, align 8
  %75 = load i64, ptr @H5E_CANTDEPEND_g, align 8
  %76 = call i32 (ptr, ptr, i32, i64, i64, ptr, ...) @H5E_printf_stack(ptr noundef @.str.2, ptr noundef @__func__.H5D__bt2_idx_open, i32 noundef 764, i64 noundef %74, i64 noundef %75, ptr noundef @.str.21)
  br label %77

77:                                               ; preds = %73
  store i8 1, ptr %5, align 1
  %78 = load i8, ptr %5, align 1
  %79 = trunc i8 %78 to i1
  %80 = zext i1 %79 to i8
  store i8 %80, ptr %5, align 1
  br label %81

81:                                               ; preds = %77
  br label %82

82:                                               ; preds = %81
  store i32 -1, ptr %4, align 4
  br label %87

83:                                               ; No predecessors!
  br label %84

84:                                               ; preds = %83
  br label %85

85:                                               ; preds = %84, %66
  br label %86

86:                                               ; preds = %85, %59
  br label %87

87:                                               ; preds = %86, %82, %56
  %88 = load i32, ptr %4, align 4
  ret i32 %88
}