; Function Attrs: nounwind uwtable
define internal range(i32 -1, 1) i32 @H5D__bt2_idx_open(ptr nocapture noundef readonly %0) #1 {
  %2 = alloca %struct.H5D_bt2_ctx_ud_t, align 8
  %3 = load ptr, ptr %0, align 8
  store ptr %3, ptr %2, align 8
  %4 = getelementptr inbounds i8, ptr %0, i64 16
  %5 = load ptr, ptr %4, align 8
  %6 = getelementptr inbounds i8, ptr %5, i64 8
  %7 = load i32, ptr %6, align 8
  %8 = add i32 %7, -1
  %9 = getelementptr inbounds i8, ptr %2, i64 12
  store i32 %8, ptr %9, align 4
  %10 = getelementptr inbounds i8, ptr %5, i64 148
  %11 = load i32, ptr %10, align 4
  %12 = getelementptr inbounds i8, ptr %2, i64 8
  store i32 %11, ptr %12, align 8
  %13 = getelementptr inbounds i8, ptr %5, i64 12
  %14 = getelementptr inbounds i8, ptr %2, i64 16
  store ptr %13, ptr %14, align 8
  %15 = getelementptr inbounds i8, ptr %0, i64 24
  %16 = load ptr, ptr %15, align 8
  %17 = getelementptr inbounds i8, ptr %16, i64 8
  %18 = load i64, ptr %17, align 8
  %19 = call ptr @H5B2_open(ptr noundef %3, i64 noundef %18, ptr noundef nonnull %2) #14
  %20 = load ptr, ptr %15, align 8
  %21 = getelementptr inbounds i8, ptr %20, i64 32
  store ptr %19, ptr %21, align 8
  %22 = icmp eq ptr %19, null
  br i1 %22, label %23, label %27

23:                                               ; preds = %1
  %24 = load i64, ptr @H5E_DATASET_g, align 8
  %25 = load i64, ptr @H5E_CANTINIT_g, align 8
  %26 = call i32 (ptr, ptr, i32, i64, i64, ptr, ...) @H5E_printf_stack(ptr noundef nonnull @.str.2, ptr noundef nonnull @__func__.H5D__bt2_idx_open, i32 noundef 758, i64 noundef %24, i64 noundef %25, ptr noundef nonnull @.str.26) #14
  br label %38

27:                                               ; preds = %1
  %28 = load ptr, ptr %0, align 8
  %29 = call i32 @H5F_get_intent(ptr noundef %28) #14
  %30 = and i32 %29, 32
  %.not = icmp eq i32 %30, 0
  br i1 %.not, label %38, label %31

31:                                               ; preds = %27
  %32 = call fastcc i32 @H5D__btree2_idx_depend(ptr noundef nonnull %0)
  %33 = icmp slt i32 %32, 0
  br i1 %33, label %34, label %38

34:                                               ; preds = %31
  %35 = load i64, ptr @H5E_DATASET_g, align 8
  %36 = load i64, ptr @H5E_CANTDEPEND_g, align 8
  %37 = call i32 (ptr, ptr, i32, i64, i64, ptr, ...) @H5E_printf_stack(ptr noundef nonnull @.str.2, ptr noundef nonnull @__func__.H5D__bt2_idx_open, i32 noundef 764, i64 noundef %35, i64 noundef %36, ptr noundef nonnull @.str.21) #14
  br label %38

38:                                               ; preds = %27, %31, %34, %23
  %.0 = phi i32 [ -1, %23 ], [ -1, %34 ], [ 0, %31 ], [ 0, %27 ]
  ret i32 %.0
}